target datalayout = "e-m:e-p270:32:32-p271:32:32-p272:64:64-i64:64-i128:128-f80:128-n8:16:32:64-S128"
target triple = "x86_64-pc-linux-gnu"

%struct.Gia_Man_t_ = type { ptr, ptr, i32, i32, i32, i32, ptr, ptr, i32, i32, i32, ptr, ptr, %struct.Vec_Int_t_, %struct.Vec_Int_t_, i32, i32, i32, %struct.Vec_Int_t_, ptr, ptr, ptr, i32, i32, i32, i32, ptr, ptr, ptr, ptr, ptr, i32, i32, ptr, i32, ptr, ptr, ptr, ptr, ptr, ptr, ptr, ptr, ptr, ptr, ptr, ptr, ptr, ptr, ptr, ptr, ptr, ptr, %struct.Vec_Int_t_, %struct.Vec_Int_t_, ptr, ptr, ptr, ptr, ptr, ptr, ptr, ptr, ptr, ptr, ptr, ptr, ptr, ptr, ptr, ptr, ptr, ptr, ptr, ptr, ptr, i32, float, float, ptr, ptr, i32, ptr, ptr, ptr, ptr, ptr, ptr, ptr, ptr, ptr, ptr, ptr, ptr, ptr, ptr, ptr, i64, i64, ptr, ptr, i32, i32, i32, i32, i32, i32, i32, i32, i32, i32, i32, i32, ptr, ptr, ptr, ptr, ptr, ptr, ptr, ptr, i32, i32, i32, ptr, i32, i32, ptr, ptr, ptr, ptr, ptr, ptr, i32, i32, ptr, %struct.Vec_Int_t_, %struct.Vec_Int_t_, %struct.Vec_Int_t_, ptr, ptr, ptr, i32, i32, i32, i32, ptr, ptr, ptr, ptr, ptr }
%struct.Vec_Int_t_ = type { i32, i32, ptr }
%struct.Gia_Obj_t_ = type <{ i64, i32 }>

; Function Attrs: inlinehint nounwind uwtable
define internal i32 @Gia_ObjFaninC1(ptr noundef %0) #2 {
  %2 = alloca ptr, align 8
  store ptr %0, ptr %2, align 8, !tbaa !43
  %3 = load ptr, ptr %2, align 8, !tbaa !43
  %4 = load i64, ptr %3, align 4
  %5 = lshr i64 %4, 61
  %6 = and i64 %5, 1
  %7 = trunc i64 %6 to i32
  ret i32 %7
}

; Function Attrs: inlinehint nounwind uwtable
define internal i32 @Abc_LitNotCond(i32 noundef %0, i32 noundef %1) #2 {
  %3 = alloca i32, align 4
  %4 = alloca i32, align 4
  store i32 %0, ptr %3, align 4, !tbaa !34
  store i32 %1, ptr %4, align 4, !tbaa !34
  %5 = load i32, ptr %3, align 4, !tbaa !34
  %6 = load i32, ptr %4, align 4, !tbaa !34
  %7 = icmp sgt i32 %6, 0
  %8 = zext i1 %7 to i32
  %9 = xor i32 %5, %8
  ret i32 %9
}

; Function Attrs: inlinehint nounwind uwtable
define internal i32 @Gia_ObjFaninC0(ptr noundef %0) #2 {
  %2 = alloca ptr, align 8
  store ptr %0, ptr %2, align 8, !tbaa !43
  %3 = load ptr, ptr %2, align 8, !tbaa !43
  %4 = load i64, ptr %3, align 4
  %5 = lshr i64 %4, 29
  %6 = and i64 %5, 1
  %7 = trunc i64 %6 to i32
  ret i32 %7
}

; Function Attrs: inlinehint nounwind uwtable
define internal ptr @Gia_ManObj(ptr noundef %0, i32 noundef %1) #2 {
  %3 = alloca ptr, align 8
  %4 = alloca i32, align 4
  store ptr %0, ptr %3, align 8, !tbaa !3
  store i32 %1, ptr %4, align 4, !tbaa !34
  %5 = load ptr, ptr %3, align 8, !tbaa !3
  %6 = getelementptr inbounds nuw %struct.Gia_Man_t_, ptr %5, i32 0, i32 6
  %7 = load ptr, ptr %6, align 8, !tbaa !44
  %8 = load i32, ptr %4, align 4, !tbaa !34
  %9 = sext i32 %8 to i64
  %10 = getelementptr inbounds %struct.Gia_Obj_t_, ptr %7, i64 %9
  ret ptr %10
}

; Function Attrs: inlinehint nounwind uwtable
define internal i32 @Abc_Lit2Var(i32 noundef %0) #2 {
  %2 = alloca i32, align 4
  store i32 %0, ptr %2, align 4, !tbaa !34
  %3 = load i32, ptr %2, align 4, !tbaa !34
  %4 = ashr i32 %3, 1
  ret i32 %4
}

; Function Attrs: inlinehint nounwind uwtable
define internal i32 @Gia_ObjFanin1Copy(ptr noundef %0) #2 {
  %2 = alloca ptr, align 8
  store ptr %0, ptr %2, align 8, !tbaa !43
  %3 = load ptr, ptr %2, align 8, !tbaa !43
  %4 = call ptr @Gia_ObjFanin1(ptr noundef %3)
  %5 = getelementptr inbounds nuw %struct.Gia_Obj_t_, ptr %4, i32 0, i32 1
  %6 = load i32, ptr %5, align 4, !tbaa !48
  %7 = load ptr, ptr %2, align 8, !tbaa !43
  %8 = call i32 @Gia_ObjFaninC1(ptr noundef %7)
  %9 = call i32 @Abc_LitNotCond(i32 noundef %6, i32 noundef %8)
  ret i32 %9
}

; Function Attrs: inlinehint nounwind uwtable
define internal i32 @Gia_ObjFanin0Copy(ptr noundef %0) #2 {
  %2 = alloca ptr, align 8
  store ptr %0, ptr %2, align 8, !tbaa !43
  %3 = load ptr, ptr %2, align 8, !tbaa !43
  %4 = call ptr @Gia_ObjFanin0(ptr noundef %3)
  %5 = getelementptr inbounds nuw %struct.Gia_Obj_t_, ptr %4, i32 0, i32 1
  %6 = load i32, ptr %5, align 4, !tbaa !48
  %7 = load ptr, ptr %2, align 8, !tbaa !43
  %8 = call i32 @Gia_ObjFaninC0(ptr noundef %7)
  %9 = call i32 @Abc_LitNotCond(i32 noundef %6, i32 noundef %8)
  ret i32 %9
}

; Function Attrs: inlinehint nounwind uwtable
define internal ptr @Gia_ObjFanin1(ptr noundef %0) #2 {
  %2 = alloca ptr, align 8
  store ptr %0, ptr %2, align 8, !tbaa !43
  %3 = load ptr, ptr %2, align 8, !tbaa !43
  %4 = load ptr, ptr %2, align 8, !tbaa !43
  %5 = load i64, ptr %4, align 4
  %6 = lshr i64 %5, 32
  %7 = and i64 %6, 536870911
  %8 = trunc i64 %7 to i32
  %9 = sext i32 %8 to i64
  %10 = sub i64 0, %9
  %11 = getelementptr inbounds %struct.Gia_Obj_t_, ptr %3, i64 %10
  ret ptr %11
}

; Function Attrs: inlinehint nounwind uwtable
define internal ptr @Gia_ObjFanin0(ptr noundef %0) #2 {
  %2 = alloca ptr, align 8
  store ptr %0, ptr %2, align 8, !tbaa !43
  %3 = load ptr, ptr %2, align 8, !tbaa !43
  %4 = load ptr, ptr %2, align 8, !tbaa !43
  %5 = load i64, ptr %4, align 4
  %6 = and i64 %5, 536870911
  %7 = trunc i64 %6 to i32
  %8 = sext i32 %7 to i64
  %9 = sub i64 0, %8
  %10 = getelementptr inbounds %struct.Gia_Obj_t_, ptr %3, i64 %9
  ret ptr %10
}

; Function Attrs: inlinehint nounwind uwtable
define internal ptr @Gia_ObjSiblObj(ptr noundef %0, i32 noundef %1) #2 {
  %3 = alloca ptr, align 8
  %4 = alloca i32, align 4
  store ptr %0, ptr %3, align 8, !tbaa !3
  store i32 %1, ptr %4, align 4, !tbaa !34
  %5 = load ptr, ptr %3, align 8, !tbaa !3
  %6 = getelementptr inbounds nuw %struct.Gia_Man_t_, ptr %5, i32 0, i32 29
  %7 = load ptr, ptr %6, align 8, !tbaa !72
  %8 = icmp ne ptr %7, null
  br i1 %8, label %9, label %28

9:                                                ; preds = %2
  %10 = load ptr, ptr %3, align 8, !tbaa !3
  %11 = getelementptr inbounds nuw %struct.Gia_Man_t_, ptr %10, i32 0, i32 29
  %12 = load ptr, ptr %11, align 8, !tbaa !72
  %13 = load i32, ptr %4, align 4, !tbaa !34
  %14 = sext i32 %13 to i64
  %15 = getelementptr inbounds i32, ptr %12, i64 %14
  %16 = load i32, ptr %15, align 4, !tbaa !34
  %17 = icmp ne i32 %16, 0
  br i1 %17, label %18, label %28

18:                                               ; preds = %9
  %19 = load ptr, ptr %3, align 8, !tbaa !3
  %20 = load ptr, ptr %3, align 8, !tbaa !3
  %21 = getelementptr inbounds nuw %struct.Gia_Man_t_, ptr %20, i32 0, i32 29
  %22 = load ptr, ptr %21, align 8, !tbaa !72
  %23 = load i32, ptr %4, align 4, !tbaa !34
  %24 = sext i32 %23 to i64
  %25 = getelementptr inbounds i32, ptr %22, i64 %24
  %26 = load i32, ptr %25, align 4, !tbaa !34
  %27 = call ptr @Gia_ManObj(ptr noundef %19, i32 noundef %26)
  br label %29

28:                                               ; preds = %9, %2
  br label %29

29:                                               ; preds = %28, %18
  %30 = phi ptr [ %27, %18 ], [ null, %28 ]
  ret ptr %30
}

; Function Attrs: inlinehint nounwind uwtable
define internal i32 @Gia_ObjSibl(ptr noundef %0, i32 noundef %1) #2 {
  %3 = alloca ptr, align 8
  %4 = alloca i32, align 4
  store ptr %0, ptr %3, align 8, !tbaa !3
  store i32 %1, ptr %4, align 4, !tbaa !34
  %5 = load ptr, ptr %3, align 8, !tbaa !3
  %6 = getelementptr inbounds nuw %struct.Gia_Man_t_, ptr %5, i32 0, i32 29
  %7 = load ptr, ptr %6, align 8, !tbaa !72
  %8 = icmp ne ptr %7, null
  br i1 %8, label %9, label %17

9:                                                ; preds = %2
  %10 = load ptr, ptr %3, align 8, !tbaa !3
  %11 = getelementptr inbounds nuw %struct.Gia_Man_t_, ptr %10, i32 0, i32 29
  %12 = load ptr, ptr %11, align 8, !tbaa !72
  %13 = load i32, ptr %4, align 4, !tbaa !34
  %14 = sext i32 %13 to i64
  %15 = getelementptr inbounds i32, ptr %12, i64 %14
  %16 = load i32, ptr %15, align 4, !tbaa !34
  br label %18

17:                                               ; preds = %2
  br label %18

18:                                               ; preds = %17, %9
  %19 = phi i32 [ %16, %9 ], [ 0, %17 ]
  ret i32 %19
}

; Function Attrs: inlinehint nounwind uwtable
define internal i32 @Gia_ObjId(ptr noundef %0, ptr noundef %1) #2 {
  %3 = alloca ptr, align 8
  %4 = alloca ptr, align 8
  store ptr %0, ptr %3, align 8, !tbaa !3
  store ptr %1, ptr %4, align 8, !tbaa !43
  %5 = load ptr, ptr %4, align 8, !tbaa !43
  %6 = load ptr, ptr %3, align 8, !tbaa !3
  %7 = getelementptr inbounds nuw %struct.Gia_Man_t_, ptr %6, i32 0, i32 6
  %8 = load ptr, ptr %7, align 8, !tbaa !44
  %9 = ptrtoint ptr %5 to i64
  %10 = ptrtoint ptr %8 to i64
  %11 = sub i64 %9, %10
  %12 = sdiv exact i64 %11, 12
  %13 = trunc i64 %12 to i32
  ret i32 %13
}

; Function Attrs: inlinehint nounwind uwtable
define internal void @Gia_ObjSetTravIdCurrent(ptr noundef %0, ptr noundef %1) #2 {
  %3 = alloca ptr, align 8
  %4 = alloca ptr, align 8
  store ptr %0, ptr %3, align 8, !tbaa !3
  store ptr %1, ptr %4, align 8, !tbaa !43
  %5 = load ptr, ptr %3, align 8, !tbaa !3
  %6 = getelementptr inbounds nuw %struct.Gia_Man_t_, ptr %5, i32 0, i32 24
  %7 = load i32, ptr %6, align 8, !tbaa !70
  %8 = load ptr, ptr %3, align 8, !tbaa !3
  %9 = getelementptr inbounds nuw %struct.Gia_Man_t_, ptr %8, i32 0, i32 80
  %10 = load ptr, ptr %9, align 8, !tbaa !69
  %11 = load ptr, ptr %3, align 8, !tbaa !3
  %12 = load ptr, ptr %4, align 8, !tbaa !43
  %13 = call i32 @Gia_ObjId(ptr noundef %11, ptr noundef %12)
  %14 = sext i32 %13 to i64
  %15 = getelementptr inbounds i32, ptr %10, i64 %14
  store i32 %7, ptr %15, align 4, !tbaa !34
  ret void
}

; Function Attrs: inlinehint nounwind uwtable
define internal i32 @Gia_ObjIsTravIdCurrent(ptr noundef %0, ptr noundef %1) #2 {
  %3 = alloca ptr, align 8
  %4 = alloca ptr, align 8
  store ptr %0, ptr %3, align 8, !tbaa !3
  store ptr %1, ptr %4, align 8, !tbaa !43
  %5 = load ptr, ptr %3, align 8, !tbaa !3
  %6 = getelementptr inbounds nuw %struct.Gia_Man_t_, ptr %5, i32 0, i32 80
  %7 = load ptr, ptr %6, align 8, !tbaa !69
  %8 = load ptr, ptr %3, align 8, !tbaa !3
  %9 = load ptr, ptr %4, align 8, !tbaa !43
  %10 = call i32 @Gia_ObjId(ptr noundef %8, ptr noundef %9)
  %11 = sext i32 %10 to i64
  %12 = getelementptr inbounds i32, ptr %7, i64 %11
  %13 = load i32, ptr %12, align 4, !tbaa !34
  %14 = load ptr, ptr %3, align 8, !tbaa !3
  %15 = getelementptr inbounds nuw %struct.Gia_Man_t_, ptr %14, i32 0, i32 24
  %16 = load i32, ptr %15, align 8, !tbaa !70
  %17 = icmp eq i32 %13, %16
  %18 = zext i1 %17 to i32
  ret i32 %18
}

; Function Attrs: nounwind uwtable
define void @Gia_ManDupCollapse_rec(ptr noundef %0, ptr noundef %1, ptr noundef %2) #0 {
  %4 = alloca ptr, align 8
  %5 = alloca ptr, align 8
  %6 = alloca ptr, align 8
  store ptr %0, ptr %4, align 8, !tbaa !3
  store ptr %1, ptr %5, align 8, !tbaa !43
  store ptr %2, ptr %6, align 8, !tbaa !3
  %7 = load ptr, ptr %4, align 8, !tbaa !3
  %8 = load ptr, ptr %5, align 8, !tbaa !43
  %9 = call i32 @Gia_ObjIsTravIdCurrent(ptr noundef %7, ptr noundef %8)
  %10 = icmp ne i32 %9, 0
  br i1 %10, label %11, label %12

11:                                               ; preds = %3
  br label %70

12:                                               ; preds = %3
  %13 = load ptr, ptr %4, align 8, !tbaa !3
  %14 = load ptr, ptr %5, align 8, !tbaa !43
  call void @Gia_ObjSetTravIdCurrent(ptr noundef %13, ptr noundef %14)
  %15 = load ptr, ptr %4, align 8, !tbaa !3
  %16 = load ptr, ptr %4, align 8, !tbaa !3
  %17 = load ptr, ptr %5, align 8, !tbaa !43
  %18 = call i32 @Gia_ObjId(ptr noundef %16, ptr noundef %17)
  %19 = call i32 @Gia_ObjSibl(ptr noundef %15, i32 noundef %18)
  %20 = icmp ne i32 %19, 0
  br i1 %20, label %21, label %29

21:                                               ; preds = %12
  %22 = load ptr, ptr %4, align 8, !tbaa !3
  %23 = load ptr, ptr %4, align 8, !tbaa !3
  %24 = load ptr, ptr %4, align 8, !tbaa !3
  %25 = load ptr, ptr %5, align 8, !tbaa !43
  %26 = call i32 @Gia_ObjId(ptr noundef %24, ptr noundef %25)
  %27 = call ptr @Gia_ObjSiblObj(ptr noundef %23, i32 noundef %26)
  %28 = load ptr, ptr %6, align 8, !tbaa !3
  call void @Gia_ManDupCollapse_rec(ptr noundef %22, ptr noundef %27, ptr noundef %28)
  br label %29

29:                                               ; preds = %21, %12
  %30 = load ptr, ptr %4, align 8, !tbaa !3
  %31 = load ptr, ptr %5, align 8, !tbaa !43
  %32 = call ptr @Gia_ObjFanin0(ptr noundef %31)
  %33 = load ptr, ptr %6, align 8, !tbaa !3
  call void @Gia_ManDupCollapse_rec(ptr noundef %30, ptr noundef %32, ptr noundef %33)
  %34 = load ptr, ptr %4, align 8, !tbaa !3
  %35 = load ptr, ptr %5, align 8, !tbaa !43
  %36 = call ptr @Gia_ObjFanin1(ptr noundef %35)
  %37 = load ptr, ptr %6, align 8, !tbaa !3
  call void @Gia_ManDupCollapse_rec(ptr noundef %34, ptr noundef %36, ptr noundef %37)
  %38 = load ptr, ptr %6, align 8, !tbaa !3
  %39 = load ptr, ptr %5, align 8, !tbaa !43
  %40 = call i32 @Gia_ObjFanin0Copy(ptr noundef %39)
  %41 = load ptr, ptr %5, align 8, !tbaa !43
  %42 = call i32 @Gia_ObjFanin1Copy(ptr noundef %41)
  %43 = call i32 @Gia_ManHashAnd(ptr noundef %38, i32 noundef %40, i32 noundef %42)
  %44 = load ptr, ptr %5, align 8, !tbaa !43
  %45 = getelementptr inbounds nuw %struct.Gia_Obj_t_, ptr %44, i32 0, i32 1
  store i32 %43, ptr %45, align 4, !tbaa !48
  %46 = load ptr, ptr %4, align 8, !tbaa !3
  %47 = load ptr, ptr %4, align 8, !tbaa !3
  %48 = load ptr, ptr %5, align 8, !tbaa !43
  %49 = call i32 @Gia_ObjId(ptr noundef %47, ptr noundef %48)
  %50 = call i32 @Gia_ObjSibl(ptr noundef %46, i32 noundef %49)
  %51 = icmp ne i32 %50, 0
  br i1 %51, label %52, label %70

52:                                               ; preds = %29
  %53 = load ptr, ptr %4, align 8, !tbaa !3
  %54 = load ptr, ptr %4, align 8, !tbaa !3
  %55 = load ptr, ptr %5, align 8, !tbaa !43
  %56 = call i32 @Gia_ObjId(ptr noundef %54, ptr noundef %55)
  %57 = call ptr @Gia_ObjSiblObj(ptr noundef %53, i32 noundef %56)
  %58 = getelementptr inbounds nuw %struct.Gia_Obj_t_, ptr %57, i32 0, i32 1
  %59 = load i32, ptr %58, align 4, !tbaa !48
  %60 = call i32 @Abc_Lit2Var(i32 noundef %59)
  %61 = load ptr, ptr %6, align 8, !tbaa !3
  %62 = getelementptr inbounds nuw %struct.Gia_Man_t_, ptr %61, i32 0, i32 29
  %63 = load ptr, ptr %62, align 8, !tbaa !72
  %64 = load ptr, ptr %5, align 8, !tbaa !43
  %65 = getelementptr inbounds nuw %struct.Gia_Obj_t_, ptr %64, i32 0, i32 1
  %66 = load i32, ptr %65, align 4, !tbaa !48
  %67 = call i32 @Abc_Lit2Var(i32 noundef %66)
  %68 = sext i32 %67 to i64
  %69 = getelementptr inbounds i32, ptr %63, i64 %68
  store i32 %60, ptr %69, align 4, !tbaa !34
  br label %70

70:                                               ; preds = %11, %52, %29
  ret void
}