; Function Attrs: nounwind uwtable
define void @Gia_ManDupCollapse_rec(ptr noundef %0, ptr noundef %1, ptr noundef %2) local_unnamed_addr #0 {
  %4 = getelementptr inbounds nuw i8, ptr %0, i64 616
  %5 = load ptr, ptr %4, align 8, !tbaa !65
  %6 = getelementptr i8, ptr %0, i64 32
  %.val.i = load ptr, ptr %6, align 8, !tbaa !39
  %7 = ptrtoint ptr %1 to i64
  %8 = ptrtoint ptr %.val.i to i64
  %9 = sub i64 %7, %8
  %10 = sdiv exact i64 %9, 12
  %sext.i = shl i64 %10, 32
  %11 = ashr exact i64 %sext.i, 30
  %12 = getelementptr inbounds i8, ptr %5, i64 %11
  %13 = load i32, ptr %12, align 4, !tbaa !33
  %14 = getelementptr inbounds nuw i8, ptr %0, i64 176
  %15 = load i32, ptr %14, align 8, !tbaa !66
  %.not = icmp eq i32 %13, %15
  br i1 %.not, label %Gia_ObjSibl.exit42.thread, label %16

16:                                               ; preds = %3
  store i32 %15, ptr %12, align 4, !tbaa !33
  %17 = getelementptr i8, ptr %0, i64 208
  %.val36 = load ptr, ptr %17, align 8, !tbaa !68
  %.not.i = icmp eq ptr %.val36, null
  br i1 %.not.i, label %Gia_ObjSibl.exit.thread, label %Gia_ObjSibl.exit

Gia_ObjSibl.exit:                                 ; preds = %16
  %18 = getelementptr inbounds i8, ptr %.val36, i64 %11
  %19 = load i32, ptr %18, align 4, !tbaa !33
  %.not30 = icmp eq i32 %19, 0
  br i1 %.not30, label %Gia_ObjSibl.exit.thread, label %Gia_ObjSiblObj.exit

Gia_ObjSiblObj.exit:                              ; preds = %Gia_ObjSibl.exit
  %20 = sext i32 %19 to i64
  %21 = getelementptr inbounds %struct.Gia_Obj_t_, ptr %.val.i, i64 %20
  tail call void @Gia_ManDupCollapse_rec(ptr noundef nonnull %0, ptr noundef nonnull %21, ptr noundef %2)
  br label %Gia_ObjSibl.exit.thread

Gia_ObjSibl.exit.thread:                          ; preds = %16, %Gia_ObjSiblObj.exit, %Gia_ObjSibl.exit
  %22 = load i64, ptr %1, align 4
  %23 = and i64 %22, 536870911
  %24 = sub nsw i64 0, %23
  %25 = getelementptr inbounds %struct.Gia_Obj_t_, ptr %1, i64 %24
  tail call void @Gia_ManDupCollapse_rec(ptr noundef nonnull %0, ptr noundef nonnull %25, ptr noundef %2)
  %26 = load i64, ptr %1, align 4
  %27 = lshr i64 %26, 32
  %28 = and i64 %27, 536870911
  %29 = sub nsw i64 0, %28
  %30 = getelementptr inbounds %struct.Gia_Obj_t_, ptr %1, i64 %29
  tail call void @Gia_ManDupCollapse_rec(ptr noundef nonnull %0, ptr noundef nonnull %30, ptr noundef %2)
  %31 = load i64, ptr %1, align 4
  %32 = and i64 %31, 536870911
  %33 = sub nsw i64 0, %32
  %34 = getelementptr inbounds %struct.Gia_Obj_t_, ptr %1, i64 %33, i32 1
  %35 = load i32, ptr %34, align 4, !tbaa !45
  %36 = trunc i64 %31 to i32
  %37 = lshr i32 %36, 29
  %38 = and i32 %37, 1
  %39 = xor i32 %38, %35
  %40 = lshr i64 %31, 32
  %41 = and i64 %40, 536870911
  %42 = sub nsw i64 0, %41
  %43 = getelementptr inbounds %struct.Gia_Obj_t_, ptr %1, i64 %42, i32 1
  %44 = load i32, ptr %43, align 4, !tbaa !45
  %45 = lshr i64 %31, 61
  %46 = trunc nuw nsw i64 %45 to i32
  %47 = and i32 %46, 1
  %48 = xor i32 %47, %44
  %49 = tail call i32 @Gia_ManHashAnd(ptr noundef %2, i32 noundef %39, i32 noundef %48) #20
  %50 = getelementptr inbounds nuw i8, ptr %1, i64 8
  store i32 %49, ptr %50, align 4, !tbaa !45
  %.val32 = load ptr, ptr %6, align 8, !tbaa !39
  %.val35 = load ptr, ptr %17, align 8, !tbaa !68
  %.not.i41 = icmp eq ptr %.val35, null
  br i1 %.not.i41, label %Gia_ObjSibl.exit42.thread, label %Gia_ObjSibl.exit42

Gia_ObjSibl.exit42:                               ; preds = %Gia_ObjSibl.exit.thread
  %51 = ptrtoint ptr %.val32 to i64
  %52 = sub i64 %7, %51
  %53 = sdiv exact i64 %52, 12
  %sext50 = shl i64 %53, 32
  %54 = ashr exact i64 %sext50, 30
  %55 = getelementptr inbounds i8, ptr %.val35, i64 %54
  %56 = load i32, ptr %55, align 4, !tbaa !33
  %.not31 = icmp eq i32 %56, 0
  br i1 %.not31, label %Gia_ObjSibl.exit42.thread, label %Gia_ObjSiblObj.exit46

Gia_ObjSiblObj.exit46:                            ; preds = %Gia_ObjSibl.exit42
  %57 = sext i32 %56 to i64
  %58 = getelementptr inbounds %struct.Gia_Obj_t_, ptr %.val32, i64 %57, i32 1
  %59 = load i32, ptr %58, align 4, !tbaa !45
  %60 = ashr i32 %59, 1
  %61 = getelementptr inbounds nuw i8, ptr %2, i64 208
  %62 = load ptr, ptr %61, align 8, !tbaa !68
  %63 = ashr i32 %49, 1
  %64 = sext i32 %63 to i64
  %65 = getelementptr inbounds i32, ptr %62, i64 %64
  store i32 %60, ptr %65, align 4, !tbaa !33
  br label %Gia_ObjSibl.exit42.thread

Gia_ObjSibl.exit42.thread:                        ; preds = %Gia_ObjSibl.exit.thread, %3, %Gia_ObjSiblObj.exit46, %Gia_ObjSibl.exit42
  ret void
}